target datalayout = "e-m:e-p270:32:32-p271:32:32-p272:64:64-i64:64-i128:128-f80:128-n8:16:32:64-S128"
target triple = "x86_64-unknown-linux-gnu"

%struct.CPUClass = type { %struct.DeviceClass, ptr, ptr, ptr, ptr, ptr, ptr, ptr, ptr, ptr, ptr, ptr, ptr, ptr, ptr, ptr, ptr, ptr, ptr, ptr, ptr, ptr, i32, i32, i8 }
%struct.DeviceClass = type { %struct.ObjectClass, [1 x i64], ptr, ptr, ptr, i8, i8, ptr, ptr, ptr, ptr, ptr }
%struct.ObjectClass = type { ptr, ptr, [4 x ptr], [4 x ptr], ptr, ptr }
%struct.SysemuCPUOps = type { ptr, ptr, ptr, ptr, ptr, ptr, ptr, ptr, ptr, ptr, ptr, ptr }

@.str = private unnamed_addr constant [29 x i8] c"../qemu/hw/core/cpu-sysemu.c\00", align 1
@__func__.cpu_get_memory_mapping = private unnamed_addr constant [23 x i8] c"cpu_get_memory_mapping\00", align 1
@.str.1 = private unnamed_addr constant [54 x i8] c"Obtaining memory mappings is unsupported on this CPU.\00", align 1
@.str.3 = private unnamed_addr constant [4 x i8] c"cpu\00", align 1
@.str.4 = private unnamed_addr constant [100 x i8] c"/home/dtcxzyw/WorkSpace/Projects/compilers/llvm-opt-benchmark/bench/qemu/qemu/include/hw/core/cpu.h\00", align 1
@__func__.CPU_GET_CLASS = private unnamed_addr constant [14 x i8] c"CPU_GET_CLASS\00", align 1

; Function Attrs: nounwind sspstrong uwtable
define internal ptr @CPU_GET_CLASS(ptr noundef %obj) #0 {
entry:
  %obj.addr = alloca ptr, align 8
  store ptr %obj, ptr %obj.addr, align 8
  %0 = load ptr, ptr %obj.addr, align 8
  %call = call ptr @object_get_class(ptr noundef %0)
  %call1 = call ptr @object_class_dynamic_cast_assert(ptr noundef %call, ptr noundef @.str.3, ptr noundef @.str.4, i32 noundef 64, ptr noundef @__func__.CPU_GET_CLASS)
  ret ptr %call1
}

; Function Attrs: nounwind sspstrong uwtable
define dso_local zeroext i1 @cpu_get_memory_mapping(ptr noundef %cpu, ptr noundef %list, ptr noundef %errp) #0 {
entry:
  %retval = alloca i1, align 1
  %cpu.addr = alloca ptr, align 8
  %list.addr = alloca ptr, align 8
  %errp.addr = alloca ptr, align 8
  %cc = alloca ptr, align 8
  store ptr %cpu, ptr %cpu.addr, align 8
  store ptr %list, ptr %list.addr, align 8
  store ptr %errp, ptr %errp.addr, align 8
  %0 = load ptr, ptr %cpu.addr, align 8
  %call = call ptr @CPU_GET_CLASS(ptr noundef %0)
  store ptr %call, ptr %cc, align 8
  %1 = load ptr, ptr %cc, align 8
  %sysemu_ops = getelementptr inbounds %struct.CPUClass, ptr %1, i32 0, i32 19
  %2 = load ptr, ptr %sysemu_ops, align 8
  %get_memory_mapping = getelementptr inbounds %struct.SysemuCPUOps, ptr %2, i32 0, i32 0
  %3 = load ptr, ptr %get_memory_mapping, align 8
  %tobool = icmp ne ptr %3, null
  br i1 %tobool, label %if.then, label %if.end

if.then:                                          ; preds = %entry
  %4 = load ptr, ptr %cc, align 8
  %sysemu_ops1 = getelementptr inbounds %struct.CPUClass, ptr %4, i32 0, i32 19
  %5 = load ptr, ptr %sysemu_ops1, align 8
  %get_memory_mapping2 = getelementptr inbounds %struct.SysemuCPUOps, ptr %5, i32 0, i32 0
  %6 = load ptr, ptr %get_memory_mapping2, align 8
  %7 = load ptr, ptr %cpu.addr, align 8
  %8 = load ptr, ptr %list.addr, align 8
  %9 = load ptr, ptr %errp.addr, align 8
  %call3 = call zeroext i1 %6(ptr noundef %7, ptr noundef %8, ptr noundef %9)
  store i1 %call3, ptr %retval, align 1
  br label %return

if.end:                                           ; preds = %entry
  %10 = load ptr, ptr %errp.addr, align 8
  call void (ptr, ptr, i32, ptr, ptr, ...) @error_setg_internal(ptr noundef %10, ptr noundef @.str, i32 noundef 46, ptr noundef @__func__.cpu_get_memory_mapping, ptr noundef @.str.1)
  store i1 false, ptr %retval, align 1
  br label %return

return:                                           ; preds = %if.end, %if.then
  %11 = load i1, ptr %retval, align 1
  ret i1 %11
}