; Function Attrs: nounwind sspstrong uwtable
define dso_local zeroext i1 @cpu_get_memory_mapping(ptr noundef %cpu, ptr noundef %list, ptr noundef %errp) local_unnamed_addr #0 {
entry:
  %call.i = tail call ptr @object_get_class(ptr noundef %cpu) #3
  %call1.i = tail call ptr @object_class_dynamic_cast_assert(ptr noundef %call.i, ptr noundef nonnull @.str.3, ptr noundef nonnull @.str.4, i32 noundef 64, ptr noundef nonnull @__func__.CPU_GET_CLASS) #3
  %sysemu_ops = getelementptr inbounds nuw i8, ptr %call1.i, i64 320
  %0 = load ptr, ptr %sysemu_ops, align 8
  %1 = load ptr, ptr %0, align 8
  %tobool.not = icmp eq ptr %1, null
  br i1 %tobool.not, label %if.end, label %if.then

if.then:                                          ; preds = %entry
  %call3 = tail call zeroext i1 %1(ptr noundef %cpu, ptr noundef %list, ptr noundef %errp) #3
  br label %return

if.end:                                           ; preds = %entry
  tail call void (ptr, ptr, i32, ptr, ptr, ...) @error_setg_internal(ptr noundef %errp, ptr noundef nonnull @.str, i32 noundef 46, ptr noundef nonnull @__func__.cpu_get_memory_mapping, ptr noundef nonnull @.str.1) #3
  br label %return

return:                                           ; preds = %if.end, %if.then
  %retval.0 = phi i1 [ %call3, %if.then ], [ false, %if.end ]
  ret i1 %retval.0
}